; ModuleID = '57/1486.c'
source_filename = "57/1486.c"
target datalayout = "e-m:e-p270:32:32-p271:32:32-p272:64:64-i64:64-f80:128-n8:16:32:64-S128"
target triple = "x86_64-pc-linux-gnu"

@.str = private unnamed_addr constant [3 x i8] c"%d\00", align 1
@.str.1 = private unnamed_addr constant [3 x i8] c"%c\00", align 1
@.str.2 = private unnamed_addr constant [2 x i8] c"\0A\00", align 1

; Function Attrs: noinline nounwind uwtable
define dso_local i32 @main(i32 %0, i8** %1) #0 {
  %3 = alloca i32, align 4
  %4 = alloca i32, align 4
  %5 = alloca i8**, align 8
  %6 = alloca [100 x i8], align 16
  %7 = alloca [100 x [100 x i8]], align 16
  %8 = alloca i32, align 4
  %9 = alloca i32, align 4
  %10 = alloca i32, align 4
  %11 = alloca [100 x i32], align 16
  store i32 0, i32* %3, align 4
  store i32 %0, i32* %4, align 4
  store i8** %1, i8*** %5, align 8
  %12 = call i32 (i8*, ...) @__isoc99_scanf(i8* getelementptr inbounds ([3 x i8], [3 x i8]* @.str, i64 0, i64 0), i32* %8)
  store i32 0, i32* %9, align 4
  br label %13

13:                                               ; preds = %158, %2
  %14 = load i32, i32* %9, align 4
  %15 = load i32, i32* %8, align 4
  %16 = add nsw i32 %15, 1
  %17 = icmp slt i32 %14, %16
  br i1 %17, label %18, label %161

18:                                               ; preds = %13
  %19 = getelementptr inbounds [100 x i8], [100 x i8]* %6, i64 0, i64 0
  %20 = call i32 (i8*, ...) bitcast (i32 (...)* @gets to i32 (i8*, ...)*)(i8* %19)
  %21 = getelementptr inbounds [100 x i8], [100 x i8]* %6, i64 0, i64 0
  %22 = call i64 @strlen(i8* %21) #3
  %23 = trunc i64 %22 to i32
  %24 = load i32, i32* %9, align 4
  %25 = sext i32 %24 to i64
  %26 = getelementptr inbounds [100 x i32], [100 x i32]* %11, i64 0, i64 %25
  store i32 %23, i32* %26, align 4
  %27 = load i32, i32* %9, align 4
  %28 = sext i32 %27 to i64
  %29 = getelementptr inbounds [100 x i32], [100 x i32]* %11, i64 0, i64 %28
  %30 = load i32, i32* %29, align 4
  %31 = sub nsw i32 %30, 1
  %32 = sext i32 %31 to i64
  %33 = getelementptr inbounds [100 x i8], [100 x i8]* %6, i64 0, i64 %32
  %34 = load i8, i8* %33, align 1
  %35 = sext i8 %34 to i32
  %36 = icmp eq i32 %35, 114
  br i1 %36, label %37, label %69

37:                                               ; preds = %18
  store i32 0, i32* %10, align 4
  br label %38

38:                                               ; preds = %57, %37
  %39 = load i32, i32* %10, align 4
  %40 = load i32, i32* %9, align 4
  %41 = sext i32 %40 to i64
  %42 = getelementptr inbounds [100 x i32], [100 x i32]* %11, i64 0, i64 %41
  %43 = load i32, i32* %42, align 4
  %44 = sub nsw i32 %43, 2
  %45 = icmp slt i32 %39, %44
  br i1 %45, label %46, label %60

46:                                               ; preds = %38
  %47 = load i32, i32* %10, align 4
  %48 = sext i32 %47 to i64
  %49 = getelementptr inbounds [100 x i8], [100 x i8]* %6, i64 0, i64 %48
  %50 = load i8, i8* %49, align 1
  %51 = load i32, i32* %9, align 4
  %52 = sext i32 %51 to i64
  %53 = getelementptr inbounds [100 x [100 x i8]], [100 x [100 x i8]]* %7, i64 0, i64 %52
  %54 = load i32, i32* %10, align 4
  %55 = sext i32 %54 to i64
  %56 = getelementptr inbounds [100 x i8], [100 x i8]* %53, i64 0, i64 %55
  store i8 %50, i8* %56, align 1
  br label %57

57:                                               ; preds = %46
  %58 = load i32, i32* %10, align 4
  %59 = add nsw i32 %58, 1
  store i32 %59, i32* %10, align 4
  br label %38

60:                                               ; preds = %38
  %61 = load i32, i32* %9, align 4
  %62 = sext i32 %61 to i64
  %63 = getelementptr inbounds [100 x i32], [100 x i32]* %11, i64 0, i64 %62
  %64 = load i32, i32* %63, align 4
  %65 = sub nsw i32 %64, 2
  %66 = load i32, i32* %9, align 4
  %67 = sext i32 %66 to i64
  %68 = getelementptr inbounds [100 x i32], [100 x i32]* %11, i64 0, i64 %67
  store i32 %65, i32* %68, align 4
  br label %157

69:                                               ; preds = %18
  %70 = load i32, i32* %9, align 4
  %71 = sext i32 %70 to i64
  %72 = getelementptr inbounds [100 x i32], [100 x i32]* %11, i64 0, i64 %71
  %73 = load i32, i32* %72, align 4
  %74 = sub nsw i32 %73, 1
  %75 = sext i32 %74 to i64
  %76 = getelementptr inbounds [100 x i8], [100 x i8]* %6, i64 0, i64 %75
  %77 = load i8, i8* %76, align 1
  %78 = sext i8 %77 to i32
  %79 = icmp eq i32 %78, 121
  br i1 %79, label %80, label %112

80:                                               ; preds = %69
  store i32 0, i32* %10, align 4
  br label %81

81:                                               ; preds = %100, %80
  %82 = load i32, i32* %10, align 4
  %83 = load i32, i32* %9, align 4
  %84 = sext i32 %83 to i64
  %85 = getelementptr inbounds [100 x i32], [100 x i32]* %11, i64 0, i64 %84
  %86 = load i32, i32* %85, align 4
  %87 = sub nsw i32 %86, 2
  %88 = icmp slt i32 %82, %87
  br i1 %88, label %89, label %103

89:                                               ; preds = %81
  %90 = load i32, i32* %10, align 4
  %91 = sext i32 %90 to i64
  %92 = getelementptr inbounds [100 x i8], [100 x i8]* %6, i64 0, i64 %91
  %93 = load i8, i8* %92, align 1
  %94 = load i32, i32* %9, align 4
  %95 = sext i32 %94 to i64
  %96 = getelementptr inbounds [100 x [100 x i8]], [100 x [100 x i8]]* %7, i64 0, i64 %95
  %97 = load i32, i32* %10, align 4
  %98 = sext i32 %97 to i64
  %99 = getelementptr inbounds [100 x i8], [100 x i8]* %96, i64 0, i64 %98
  store i8 %93, i8* %99, align 1
  br label %100

100:                                              ; preds = %89
  %101 = load i32, i32* %10, align 4
  %102 = add nsw i32 %101, 1
  store i32 %102, i32* %10, align 4
  br label %81

103:                                              ; preds = %81
  %104 = load i32, i32* %9, align 4
  %105 = sext i32 %104 to i64
  %106 = getelementptr inbounds [100 x i32], [100 x i32]* %11, i64 0, i64 %105
  %107 = load i32, i32* %106, align 4
  %108 = sub nsw i32 %107, 2
  %109 = load i32, i32* %9, align 4
  %110 = sext i32 %109 to i64
  %111 = getelementptr inbounds [100 x i32], [100 x i32]* %11, i64 0, i64 %110
  store i32 %108, i32* %111, align 4
  br label %156

112:                                              ; preds = %69
  %113 = load i32, i32* %9, align 4
  %114 = sext i32 %113 to i64
  %115 = getelementptr inbounds [100 x i32], [100 x i32]* %11, i64 0, i64 %114
  %116 = load i32, i32* %115, align 4
  %117 = sub nsw i32 %116, 1
  %118 = sext i32 %117 to i64
  %119 = getelementptr inbounds [100 x i8], [100 x i8]* %6, i64 0, i64 %118
  %120 = load i8, i8* %119, align 1
  %121 = sext i8 %120 to i32
  %122 = icmp eq i32 %121, 103
  br i1 %122, label %123, label %155

123:                                              ; preds = %112
  store i32 0, i32* %10, align 4
  br label %124

124:                                              ; preds = %143, %123
  %125 = load i32, i32* %10, align 4
  %126 = load i32, i32* %9, align 4
  %127 = sext i32 %126 to i64
  %128 = getelementptr inbounds [100 x i32], [100 x i32]* %11, i64 0, i64 %127
  %129 = load i32, i32* %128, align 4
  %130 = sub nsw i32 %129, 3
  %131 = icmp slt i32 %125, %130
  br i1 %131, label %132, label %146

132:                                              ; preds = %124
  %133 = load i32, i32* %10, align 4
  %134 = sext i32 %133 to i64
  %135 = getelementptr inbounds [100 x i8], [100 x i8]* %6, i64 0, i64 %134
  %136 = load i8, i8* %135, align 1
  %137 = load i32, i32* %9, align 4
  %138 = sext i32 %137 to i64
  %139 = getelementptr inbounds [100 x [100 x i8]], [100 x [100 x i8]]* %7, i64 0, i64 %138
  %140 = load i32, i32* %10, align 4
  %141 = sext i32 %140 to i64
  %142 = getelementptr inbounds [100 x i8], [100 x i8]* %139, i64 0, i64 %141
  store i8 %136, i8* %142, align 1
  br label %143

143:                                              ; preds = %132
  %144 = load i32, i32* %10, align 4
  %145 = add nsw i32 %144, 1
  store i32 %145, i32* %10, align 4
  br label %124

146:                                              ; preds = %124
  %147 = load i32, i32* %9, align 4
  %148 = sext i32 %147 to i64
  %149 = getelementptr inbounds [100 x i32], [100 x i32]* %11, i64 0, i64 %148
  %150 = load i32, i32* %149, align 4
  %151 = sub nsw i32 %150, 3
  %152 = load i32, i32* %9, align 4
  %153 = sext i32 %152 to i64
  %154 = getelementptr inbounds [100 x i32], [100 x i32]* %11, i64 0, i64 %153
  store i32 %151, i32* %154, align 4
  br label %155

155:                                              ; preds = %146, %112
  br label %156

156:                                              ; preds = %155, %103
  br label %157

157:                                              ; preds = %156, %60
  br label %158

158:                                              ; preds = %157
  %159 = load i32, i32* %9, align 4
  %160 = add nsw i32 %159, 1
  store i32 %160, i32* %9, align 4
  br label %13

161:                                              ; preds = %13
  store i32 0, i32* %9, align 4
  br label %162

162:                                              ; preds = %194, %161
  %163 = load i32, i32* %9, align 4
  %164 = load i32, i32* %8, align 4
  %165 = add nsw i32 %164, 1
  %166 = icmp slt i32 %163, %165
  br i1 %166, label %167, label %197

167:                                              ; preds = %162
  store i32 0, i32* %10, align 4
  br label %168

168:                                              ; preds = %185, %167
  %169 = load i32, i32* %10, align 4
  %170 = load i32, i32* %9, align 4
  %171 = sext i32 %170 to i64
  %172 = getelementptr inbounds [100 x i32], [100 x i32]* %11, i64 0, i64 %171
  %173 = load i32, i32* %172, align 4
  %174 = icmp slt i32 %169, %173
  br i1 %174, label %175, label %188

175:                                              ; preds = %168
  %176 = load i32, i32* %9, align 4
  %177 = sext i32 %176 to i64
  %178 = getelementptr inbounds [100 x [100 x i8]], [100 x [100 x i8]]* %7, i64 0, i64 %177
  %179 = load i32, i32* %10, align 4
  %180 = sext i32 %179 to i64
  %181 = getelementptr inbounds [100 x i8], [100 x i8]* %178, i64 0, i64 %180
  %182 = load i8, i8* %181, align 1
  %183 = sext i8 %182 to i32
  %184 = call i32 (i8*, ...) @printf(i8* getelementptr inbounds ([3 x i8], [3 x i8]* @.str.1, i64 0, i64 0), i32 %183)
  br label %185

185:                                              ; preds = %175
  %186 = load i32, i32* %10, align 4
  %187 = add nsw i32 %186, 1
  store i32 %187, i32* %10, align 4
  br label %168

188:                                              ; preds = %168
  %189 = load i32, i32* %9, align 4
  %190 = icmp ne i32 %189, 0
  br i1 %190, label %191, label %193

191:                                              ; preds = %188
  %192 = call i32 (i8*, ...) @printf(i8* getelementptr inbounds ([2 x i8], [2 x i8]* @.str.2, i64 0, i64 0))
  br label %193

193:                                              ; preds = %191, %188
  br label %194

194:                                              ; preds = %193
  %195 = load i32, i32* %9, align 4
  %196 = add nsw i32 %195, 1
  store i32 %196, i32* %9, align 4
  br label %162

197:                                              ; preds = %162
  ret i32 0
}

declare dso_local i32 @__isoc99_scanf(i8*, ...) #1

declare dso_local i32 @gets(...) #1

; Function Attrs: nounwind readonly
declare dso_local i64 @strlen(i8*) #2

declare dso_local i32 @printf(i8*, ...) #1


!llvm.module.flags = !{!0}
!llvm.ident = !{!1}

!0 = !{i32 1, !"wchar_size", i32 4}
!1 = !{!"clang version 10.0.0-4ubuntu1 "}
